; Function Attrs: mustprogress nounwind uwtable
define hidden noundef i32 @_ZN8JvmtiEnv22GetFieldDeclaringClassEP15fieldDescriptorPP7_jclass(ptr noundef nonnull align 8 dereferenceable(460) %0, ptr nocapture noundef readonly %1, ptr nocapture noundef writeonly %2) local_unnamed_addr #0 align 2 {
  %4 = getelementptr inbounds i8, ptr %1, i64 32
  %5 = load ptr, ptr %4, align 8
  %6 = getelementptr inbounds i8, ptr %5, i64 24
  %7 = load ptr, ptr %6, align 8
  %8 = tail call noundef ptr @_ZN12JvmtiEnvBase22get_jni_class_non_nullEP5Klass(ptr noundef nonnull align 8 dereferenceable(460) %0, ptr noundef %7) #17
  store ptr %8, ptr %2, align 8
  ret i32 0
}